; Function Attrs: mustprogress noreturn uwtable
define noundef i64 @_Z21logged_rv64e_fmvp_d_xP11processor_t6insn_tm(ptr nocapture noundef readnone %0, i64 %1, i64 noundef %2) local_unnamed_addr #6 personality ptr @__gxx_personality_v0 {
  %4 = tail call ptr @__cxa_allocate_exception(i64 32) #14
  %5 = getelementptr inbounds i8, ptr %4, i64 8
  store i64 2, ptr %5, align 8
  %6 = getelementptr inbounds i8, ptr %4, i64 16
  store i8 0, ptr %6, align 8
  %7 = getelementptr inbounds i8, ptr %4, i64 24
  store i64 %1, ptr %7, align 8
  store ptr getelementptr inbounds ({ [12 x ptr] }, ptr @_ZTV24trap_illegal_instruction, i64 0, i32 0, i64 2), ptr %4, align 8
  tail call void @__cxa_throw(ptr nonnull %4, ptr nonnull @_ZTI24trap_illegal_instruction, ptr nonnull @_ZN24trap_illegal_instructionD2Ev) #15
  unreachable
}